target datalayout = "e-m:e-p270:32:32-p271:32:32-p272:64:64-i64:64-i128:128-f80:128-n8:16:32:64-S128"
target triple = "x86_64-pc-linux-gnu"

%"struct.(anonymous namespace)::EquivOptPass" = type <{ %"struct.Yosys::ScriptPass", %"class.std::__cxx11::basic_string", %"class.std::__cxx11::basic_string", %"class.std::__cxx11::basic_string", i8, i8, i8, i8, i8, [3 x i8] }>
%"struct.Yosys::ScriptPass" = type { %"struct.Yosys::Pass", i8, i8, ptr, %"class.std::__cxx11::basic_string", %"class.std::__cxx11::basic_string" }
%"struct.Yosys::Pass" = type { ptr, %"class.std::__cxx11::basic_string", %"class.std::__cxx11::basic_string", i32, i64, i8, ptr }
%"class.std::__cxx11::basic_string" = type { %"struct.std::__cxx11::basic_string<char>::_Alloc_hider", i64, %union.anon }
%"struct.std::__cxx11::basic_string<char>::_Alloc_hider" = type { ptr }
%union.anon = type { i64, [8 x i8] }

@.str.28 = private unnamed_addr constant [1 x i8] zeroinitializer, align 1

; Function Attrs: mustprogress uwtable
define internal void @_ZN12_GLOBAL__N_112EquivOptPass11clear_flagsEv(ptr noundef nonnull align 8 dereferenceable(285) %0) unnamed_addr #4 align 2 {
  %2 = alloca ptr, align 8
  store ptr %0, ptr %2, align 8
  %3 = load ptr, ptr %2, align 8
  %4 = getelementptr inbounds %"struct.(anonymous namespace)::EquivOptPass", ptr %3, i32 0, i32 1
  %5 = call noundef nonnull align 8 dereferenceable(32) ptr @_ZNSt7__cxx1112basic_stringIcSt11char_traitsIcESaIcEEaSEPKc(ptr noundef nonnull align 8 dereferenceable(32) %4, ptr noundef @.str.28)
  %6 = getelementptr inbounds %"struct.(anonymous namespace)::EquivOptPass", ptr %3, i32 0, i32 2
  %7 = call noundef nonnull align 8 dereferenceable(32) ptr @_ZNSt7__cxx1112basic_stringIcSt11char_traitsIcESaIcEEaSEPKc(ptr noundef nonnull align 8 dereferenceable(32) %6, ptr noundef @.str.28)
  %8 = getelementptr inbounds %"struct.(anonymous namespace)::EquivOptPass", ptr %3, i32 0, i32 3
  %9 = call noundef nonnull align 8 dereferenceable(32) ptr @_ZNSt7__cxx1112basic_stringIcSt11char_traitsIcESaIcEEaSEPKc(ptr noundef nonnull align 8 dereferenceable(32) %8, ptr noundef @.str.28)
  %10 = getelementptr inbounds %"struct.(anonymous namespace)::EquivOptPass", ptr %3, i32 0, i32 4
  store i8 0, ptr %10, align 8
  %11 = getelementptr inbounds %"struct.(anonymous namespace)::EquivOptPass", ptr %3, i32 0, i32 5
  store i8 0, ptr %11, align 1
  %12 = getelementptr inbounds %"struct.(anonymous namespace)::EquivOptPass", ptr %3, i32 0, i32 6
  store i8 0, ptr %12, align 2
  %13 = getelementptr inbounds %"struct.(anonymous namespace)::EquivOptPass", ptr %3, i32 0, i32 7
  store i8 0, ptr %13, align 1
  %14 = getelementptr inbounds %"struct.(anonymous namespace)::EquivOptPass", ptr %3, i32 0, i32 8
  store i8 0, ptr %14, align 4
  ret void
}