; Function Attrs: mustprogress uwtable
define internal void @_ZN12_GLOBAL__N_112EquivOptPass11clear_flagsEv(ptr noundef nonnull align 8 dereferenceable(285) %0) unnamed_addr #4 align 2 {
  %2 = getelementptr inbounds i8, ptr %0, i64 184
  %3 = tail call noundef nonnull align 8 dereferenceable(32) ptr @_ZNSt7__cxx1112basic_stringIcSt11char_traitsIcESaIcEEaSEPKc(ptr noundef nonnull align 8 dereferenceable(32) %2, ptr noundef nonnull @.str.28)
  %4 = getelementptr inbounds i8, ptr %0, i64 216
  %5 = tail call noundef nonnull align 8 dereferenceable(32) ptr @_ZNSt7__cxx1112basic_stringIcSt11char_traitsIcESaIcEEaSEPKc(ptr noundef nonnull align 8 dereferenceable(32) %4, ptr noundef nonnull @.str.28)
  %6 = getelementptr inbounds i8, ptr %0, i64 248
  %7 = tail call noundef nonnull align 8 dereferenceable(32) ptr @_ZNSt7__cxx1112basic_stringIcSt11char_traitsIcESaIcEEaSEPKc(ptr noundef nonnull align 8 dereferenceable(32) %6, ptr noundef nonnull @.str.28)
  %8 = getelementptr inbounds i8, ptr %0, i64 280
  tail call void @llvm.memset.p0.i64(ptr noundef nonnull align 8 dereferenceable(5) %8, i8 0, i64 5, i1 false)
  ret void
}